target datalayout = "e-m:e-p270:32:32-p271:32:32-p272:64:64-i64:64-i128:128-f80:128-n8:16:32:64-S128"
target triple = "x86_64-pc-linux-gnu"

@mainctx = internal global ptr null, align 8
@.str.28 = private unnamed_addr constant [34 x i8] c"../openssl/test/evp_extra_test2.c\00", align 1
@.str.50 = private unnamed_addr constant [46 x i8] c"key = EVP_PKEY_Q_keygen(mainctx, NULL, \22XOR\22)\00", align 1
@.str.51 = private unnamed_addr constant [4 x i8] c"XOR\00", align 1
@.str.52 = private unnamed_addr constant [70 x i8] c"OSSL_PROVIDER_add_builtin(mainctx, \22tls-provider\22, tls_provider_init)\00", align 1
@.str.53 = private unnamed_addr constant [13 x i8] c"tls-provider\00", align 1
@.str.54 = private unnamed_addr constant [54 x i8] c"tlsprov = OSSL_PROVIDER_load(mainctx, \22tls-provider\22)\00", align 1
@.str.55 = private unnamed_addr constant [34 x i8] c"ctx = EVP_PKEY_CTX_new(key, NULL)\00", align 1
@.str.56 = private unnamed_addr constant [37 x i8] c"EVP_PKEY_encapsulate_init(ctx, NULL)\00", align 1
@.str.57 = private unnamed_addr constant [2 x i8] c"1\00", align 1
@.str.58 = private unnamed_addr constant [59 x i8] c"EVP_PKEY_encapsulate(ctx, NULL, &outlen, NULL, &secretlen)\00", align 1
@.str.59 = private unnamed_addr constant [60 x i8] c"EVP_PKEY_encapsulate(ctx, out, &outlen, secret, &secretlen)\00", align 1
@.str.60 = private unnamed_addr constant [37 x i8] c"EVP_PKEY_decapsulate_init(ctx, NULL)\00", align 1
@.str.61 = private unnamed_addr constant [61 x i8] c"EVP_PKEY_decapsulate(ctx, secret2, &secretlen2, out, outlen)\00", align 1
@.str.62 = private unnamed_addr constant [7 x i8] c"secret\00", align 1
@.str.63 = private unnamed_addr constant [8 x i8] c"secret2\00", align 1

; Function Attrs: nounwind uwtable
define internal i32 @test_new_keytype() #0 {
  %1 = alloca i32, align 4
  %2 = alloca ptr, align 8
  %3 = alloca ptr, align 8
  %4 = alloca ptr, align 8
  %5 = alloca i64, align 8
  %6 = alloca i64, align 8
  %7 = alloca i64, align 8
  %8 = alloca ptr, align 8
  %9 = alloca ptr, align 8
  %10 = alloca ptr, align 8
  call void @llvm.lifetime.start.p0(i64 4, ptr %1) #7
  store i32 0, ptr %1, align 4, !tbaa !11
  call void @llvm.lifetime.start.p0(i64 8, ptr %2) #7
  store ptr null, ptr %2, align 8, !tbaa !13
  call void @llvm.lifetime.start.p0(i64 8, ptr %3) #7
  store ptr null, ptr %3, align 8, !tbaa !27
  call void @llvm.lifetime.start.p0(i64 8, ptr %4) #7
  store ptr null, ptr %4, align 8, !tbaa !29
  call void @llvm.lifetime.start.p0(i64 8, ptr %5) #7
  call void @llvm.lifetime.start.p0(i64 8, ptr %6) #7
  call void @llvm.lifetime.start.p0(i64 8, ptr %7) #7
  call void @llvm.lifetime.start.p0(i64 8, ptr %8) #7
  store ptr null, ptr %8, align 8, !tbaa !21
  call void @llvm.lifetime.start.p0(i64 8, ptr %9) #7
  store ptr null, ptr %9, align 8, !tbaa !21
  call void @llvm.lifetime.start.p0(i64 8, ptr %10) #7
  store ptr null, ptr %10, align 8, !tbaa !21
  %11 = load ptr, ptr @mainctx, align 8, !tbaa !4
  %12 = call ptr (ptr, ptr, ptr, ...) @EVP_PKEY_Q_keygen(ptr noundef %11, ptr noundef null, ptr noundef @.str.51)
  store ptr %12, ptr %2, align 8, !tbaa !13
  %13 = call i32 @test_ptr(ptr noundef @.str.28, i32 noundef 472, ptr noundef @.str.50, ptr noundef %12)
  %14 = icmp ne i32 %13, 0
  br i1 %14, label %15, label %16

15:                                               ; preds = %0
  br label %97

16:                                               ; preds = %0
  %17 = load ptr, ptr @mainctx, align 8, !tbaa !4
  %18 = call i32 @OSSL_PROVIDER_add_builtin(ptr noundef %17, ptr noundef @.str.53, ptr noundef @tls_provider_init)
  %19 = icmp ne i32 %18, 0
  %20 = zext i1 %19 to i32
  %21 = call i32 @test_true(ptr noundef @.str.28, i32 noundef 476, ptr noundef @.str.52, i32 noundef %20)
  %22 = icmp ne i32 %21, 0
  br i1 %22, label %23, label %28

23:                                               ; preds = %16
  %24 = load ptr, ptr @mainctx, align 8, !tbaa !4
  %25 = call ptr @OSSL_PROVIDER_load(ptr noundef %24, ptr noundef @.str.53)
  store ptr %25, ptr %3, align 8, !tbaa !27
  %26 = call i32 @test_ptr(ptr noundef @.str.28, i32 noundef 477, ptr noundef @.str.54, ptr noundef %25)
  %27 = icmp ne i32 %26, 0
  br i1 %27, label %29, label %28

28:                                               ; preds = %23, %16
  br label %97

29:                                               ; preds = %23
  %30 = load ptr, ptr @mainctx, align 8, !tbaa !4
  %31 = call ptr (ptr, ptr, ptr, ...) @EVP_PKEY_Q_keygen(ptr noundef %30, ptr noundef null, ptr noundef @.str.51)
  store ptr %31, ptr %2, align 8, !tbaa !13
  %32 = call i32 @test_ptr(ptr noundef @.str.28, i32 noundef 480, ptr noundef @.str.50, ptr noundef %31)
  %33 = icmp ne i32 %32, 0
  br i1 %33, label %35, label %34

34:                                               ; preds = %29
  br label %97

35:                                               ; preds = %29
  %36 = load ptr, ptr %2, align 8, !tbaa !13
  %37 = call ptr @EVP_PKEY_CTX_new(ptr noundef %36, ptr noundef null)
  store ptr %37, ptr %4, align 8, !tbaa !29
  %38 = call i32 @test_ptr(ptr noundef @.str.28, i32 noundef 483, ptr noundef @.str.55, ptr noundef %37)
  %39 = icmp ne i32 %38, 0
  br i1 %39, label %40, label %50

40:                                               ; preds = %35
  %41 = load ptr, ptr %4, align 8, !tbaa !29
  %42 = call i32 @EVP_PKEY_encapsulate_init(ptr noundef %41, ptr noundef null)
  %43 = call i32 @test_int_eq(ptr noundef @.str.28, i32 noundef 484, ptr noundef @.str.56, ptr noundef @.str.57, i32 noundef %42, i32 noundef 1)
  %44 = icmp ne i32 %43, 0
  br i1 %44, label %45, label %50

45:                                               ; preds = %40
  %46 = load ptr, ptr %4, align 8, !tbaa !29
  %47 = call i32 @EVP_PKEY_encapsulate(ptr noundef %46, ptr noundef null, ptr noundef %5, ptr noundef null, ptr noundef %6)
  %48 = call i32 @test_int_eq(ptr noundef @.str.28, i32 noundef 485, ptr noundef @.str.58, ptr noundef @.str.57, i32 noundef %47, i32 noundef 1)
  %49 = icmp ne i32 %48, 0
  br i1 %49, label %51, label %50

50:                                               ; preds = %45, %40, %35
  br label %97

51:                                               ; preds = %45
  %52 = load i64, ptr %5, align 8, !tbaa !23
  %53 = call noalias ptr @CRYPTO_malloc(i64 noundef %52, ptr noundef @.str.28, i32 noundef 487)
  store ptr %53, ptr %8, align 8, !tbaa !21
  %54 = load i64, ptr %6, align 8, !tbaa !23
  %55 = call noalias ptr @CRYPTO_malloc(i64 noundef %54, ptr noundef @.str.28, i32 noundef 488)
  store ptr %55, ptr %9, align 8, !tbaa !21
  %56 = load i64, ptr %6, align 8, !tbaa !23
  %57 = call noalias ptr @CRYPTO_malloc(i64 noundef %56, ptr noundef @.str.28, i32 noundef 489)
  store ptr %57, ptr %10, align 8, !tbaa !21
  %58 = load ptr, ptr %8, align 8, !tbaa !21
  %59 = icmp eq ptr %58, null
  br i1 %59, label %93, label %60

60:                                               ; preds = %51
  %61 = load ptr, ptr %9, align 8, !tbaa !21
  %62 = icmp eq ptr %61, null
  br i1 %62, label %93, label %63

63:                                               ; preds = %60
  %64 = load ptr, ptr %10, align 8, !tbaa !21
  %65 = icmp eq ptr %64, null
  br i1 %65, label %93, label %66

66:                                               ; preds = %63
  %67 = load ptr, ptr %4, align 8, !tbaa !29
  %68 = load ptr, ptr %8, align 8, !tbaa !21
  %69 = load ptr, ptr %9, align 8, !tbaa !21
  %70 = call i32 @EVP_PKEY_encapsulate(ptr noundef %67, ptr noundef %68, ptr noundef %5, ptr noundef %69, ptr noundef %6)
  %71 = call i32 @test_int_eq(ptr noundef @.str.28, i32 noundef 491, ptr noundef @.str.59, ptr noundef @.str.57, i32 noundef %70, i32 noundef 1)
  %72 = icmp ne i32 %71, 0
  br i1 %72, label %73, label %93

73:                                               ; preds = %66
  %74 = load ptr, ptr %4, align 8, !tbaa !29
  %75 = call i32 @EVP_PKEY_decapsulate_init(ptr noundef %74, ptr noundef null)
  %76 = call i32 @test_int_eq(ptr noundef @.str.28, i32 noundef 492, ptr noundef @.str.60, ptr noundef @.str.57, i32 noundef %75, i32 noundef 1)
  %77 = icmp ne i32 %76, 0
  br i1 %77, label %78, label %93

78:                                               ; preds = %73
  %79 = load ptr, ptr %4, align 8, !tbaa !29
  %80 = load ptr, ptr %10, align 8, !tbaa !21
  %81 = load ptr, ptr %8, align 8, !tbaa !21
  %82 = load i64, ptr %5, align 8, !tbaa !23
  %83 = call i32 @EVP_PKEY_decapsulate(ptr noundef %79, ptr noundef %80, ptr noundef %7, ptr noundef %81, i64 noundef %82)
  %84 = call i32 @test_int_eq(ptr noundef @.str.28, i32 noundef 493, ptr noundef @.str.61, ptr noundef @.str.57, i32 noundef %83, i32 noundef 1)
  %85 = icmp ne i32 %84, 0
  br i1 %85, label %86, label %93

86:                                               ; preds = %78
  %87 = load ptr, ptr %9, align 8, !tbaa !21
  %88 = load i64, ptr %6, align 8, !tbaa !23
  %89 = load ptr, ptr %10, align 8, !tbaa !21
  %90 = load i64, ptr %7, align 8, !tbaa !23
  %91 = call i32 @test_mem_eq(ptr noundef @.str.28, i32 noundef 494, ptr noundef @.str.62, ptr noundef @.str.63, ptr noundef %87, i64 noundef %88, ptr noundef %89, i64 noundef %90)
  %92 = icmp ne i32 %91, 0
  br i1 %92, label %94, label %93

93:                                               ; preds = %86, %78, %73, %66, %63, %60, %51
  br label %97

94:                                               ; preds = %86
  %95 = load ptr, ptr %3, align 8, !tbaa !27
  %96 = call i32 @OSSL_PROVIDER_unload(ptr noundef %95)
  store i32 %96, ptr %1, align 4, !tbaa !11
  br label %97

97:                                               ; preds = %94, %93, %50, %34, %28, %15
  %98 = load ptr, ptr %8, align 8, !tbaa !21
  call void @CRYPTO_free(ptr noundef %98, ptr noundef @.str.28, i32 noundef 499)
  %99 = load ptr, ptr %9, align 8, !tbaa !21
  call void @CRYPTO_free(ptr noundef %99, ptr noundef @.str.28, i32 noundef 500)
  %100 = load ptr, ptr %10, align 8, !tbaa !21
  call void @CRYPTO_free(ptr noundef %100, ptr noundef @.str.28, i32 noundef 501)
  %101 = load ptr, ptr %4, align 8, !tbaa !29
  call void @EVP_PKEY_CTX_free(ptr noundef %101)
  %102 = load ptr, ptr %2, align 8, !tbaa !13
  call void @EVP_PKEY_free(ptr noundef %102)
  %103 = load i32, ptr %1, align 4, !tbaa !11
  call void @llvm.lifetime.end.p0(i64 8, ptr %10) #7
  call void @llvm.lifetime.end.p0(i64 8, ptr %9) #7
  call void @llvm.lifetime.end.p0(i64 8, ptr %8) #7
  call void @llvm.lifetime.end.p0(i64 8, ptr %7) #7
  call void @llvm.lifetime.end.p0(i64 8, ptr %6) #7
  call void @llvm.lifetime.end.p0(i64 8, ptr %5) #7
  call void @llvm.lifetime.end.p0(i64 8, ptr %4) #7
  call void @llvm.lifetime.end.p0(i64 8, ptr %3) #7
  call void @llvm.lifetime.end.p0(i64 8, ptr %2) #7
  call void @llvm.lifetime.end.p0(i64 4, ptr %1) #7
  ret i32 %103
}