; Function Attrs: nounwind uwtable
define internal i32 @test_new_keytype() #0 {
  %1 = alloca i64, align 8
  %2 = alloca i64, align 8
  %3 = alloca i64, align 8
  call void @llvm.lifetime.start.p0(i64 8, ptr nonnull %1) #7
  call void @llvm.lifetime.start.p0(i64 8, ptr nonnull %2) #7
  call void @llvm.lifetime.start.p0(i64 8, ptr nonnull %3) #7
  %4 = load ptr, ptr @mainctx, align 8, !tbaa !4
  %5 = tail call ptr (ptr, ptr, ptr, ...) @EVP_PKEY_Q_keygen(ptr noundef %4, ptr noundef null, ptr noundef nonnull @.str.51) #7
  %6 = tail call i32 @test_ptr(ptr noundef nonnull @.str.28, i32 noundef 472, ptr noundef nonnull @.str.50, ptr noundef %5) #7
  %.not = icmp eq i32 %6, 0
  br i1 %.not, label %7, label %56

7:                                                ; preds = %0
  %8 = load ptr, ptr @mainctx, align 8, !tbaa !4
  %9 = tail call i32 @OSSL_PROVIDER_add_builtin(ptr noundef %8, ptr noundef nonnull @.str.53, ptr noundef nonnull @tls_provider_init) #7
  %10 = icmp ne i32 %9, 0
  %11 = zext i1 %10 to i32
  %12 = tail call i32 @test_true(ptr noundef nonnull @.str.28, i32 noundef 476, ptr noundef nonnull @.str.52, i32 noundef %11) #7
  %.not32 = icmp eq i32 %12, 0
  br i1 %.not32, label %56, label %13

13:                                               ; preds = %7
  %14 = load ptr, ptr @mainctx, align 8, !tbaa !4
  %15 = tail call ptr @OSSL_PROVIDER_load(ptr noundef %14, ptr noundef nonnull @.str.53) #7
  %16 = tail call i32 @test_ptr(ptr noundef nonnull @.str.28, i32 noundef 477, ptr noundef nonnull @.str.54, ptr noundef %15) #7
  %.not33 = icmp eq i32 %16, 0
  br i1 %.not33, label %56, label %17

17:                                               ; preds = %13
  %18 = load ptr, ptr @mainctx, align 8, !tbaa !4
  %19 = tail call ptr (ptr, ptr, ptr, ...) @EVP_PKEY_Q_keygen(ptr noundef %18, ptr noundef null, ptr noundef nonnull @.str.51) #7
  %20 = tail call i32 @test_ptr(ptr noundef nonnull @.str.28, i32 noundef 480, ptr noundef nonnull @.str.50, ptr noundef %19) #7
  %.not34 = icmp eq i32 %20, 0
  br i1 %.not34, label %56, label %21

21:                                               ; preds = %17
  %22 = tail call ptr @EVP_PKEY_CTX_new(ptr noundef %19, ptr noundef null) #7
  %23 = tail call i32 @test_ptr(ptr noundef nonnull @.str.28, i32 noundef 483, ptr noundef nonnull @.str.55, ptr noundef %22) #7
  %.not35 = icmp eq i32 %23, 0
  br i1 %.not35, label %56, label %24

24:                                               ; preds = %21
  %25 = tail call i32 @EVP_PKEY_encapsulate_init(ptr noundef %22, ptr noundef null) #7
  %26 = tail call i32 @test_int_eq(ptr noundef nonnull @.str.28, i32 noundef 484, ptr noundef nonnull @.str.56, ptr noundef nonnull @.str.57, i32 noundef %25, i32 noundef 1) #7
  %.not36 = icmp eq i32 %26, 0
  br i1 %.not36, label %56, label %27

27:                                               ; preds = %24
  %28 = call i32 @EVP_PKEY_encapsulate(ptr noundef %22, ptr noundef null, ptr noundef nonnull %1, ptr noundef null, ptr noundef nonnull %2) #7
  %29 = call i32 @test_int_eq(ptr noundef nonnull @.str.28, i32 noundef 485, ptr noundef nonnull @.str.58, ptr noundef nonnull @.str.57, i32 noundef %28, i32 noundef 1) #7
  %.not37 = icmp eq i32 %29, 0
  br i1 %.not37, label %56, label %30

30:                                               ; preds = %27
  %31 = load i64, ptr %1, align 8, !tbaa !19
  %32 = call noalias ptr @CRYPTO_malloc(i64 noundef %31, ptr noundef nonnull @.str.28, i32 noundef 487) #7
  %33 = load i64, ptr %2, align 8, !tbaa !19
  %34 = call noalias ptr @CRYPTO_malloc(i64 noundef %33, ptr noundef nonnull @.str.28, i32 noundef 488) #7
  %35 = load i64, ptr %2, align 8, !tbaa !19
  %36 = call noalias ptr @CRYPTO_malloc(i64 noundef %35, ptr noundef nonnull @.str.28, i32 noundef 489) #7
  %37 = icmp eq ptr %32, null
  %38 = icmp eq ptr %34, null
  %or.cond = select i1 %37, i1 true, i1 %38
  %39 = icmp eq ptr %36, null
  %or.cond3 = select i1 %or.cond, i1 true, i1 %39
  br i1 %or.cond3, label %56, label %40

40:                                               ; preds = %30
  %41 = call i32 @EVP_PKEY_encapsulate(ptr noundef %22, ptr noundef nonnull %32, ptr noundef nonnull %1, ptr noundef nonnull %34, ptr noundef nonnull %2) #7
  %42 = call i32 @test_int_eq(ptr noundef nonnull @.str.28, i32 noundef 491, ptr noundef nonnull @.str.59, ptr noundef nonnull @.str.57, i32 noundef %41, i32 noundef 1) #7
  %.not38 = icmp eq i32 %42, 0
  br i1 %.not38, label %56, label %43

43:                                               ; preds = %40
  %44 = call i32 @EVP_PKEY_decapsulate_init(ptr noundef %22, ptr noundef null) #7
  %45 = call i32 @test_int_eq(ptr noundef nonnull @.str.28, i32 noundef 492, ptr noundef nonnull @.str.60, ptr noundef nonnull @.str.57, i32 noundef %44, i32 noundef 1) #7
  %.not39 = icmp eq i32 %45, 0
  br i1 %.not39, label %56, label %46

46:                                               ; preds = %43
  %47 = load i64, ptr %1, align 8, !tbaa !19
  %48 = call i32 @EVP_PKEY_decapsulate(ptr noundef %22, ptr noundef nonnull %36, ptr noundef nonnull %3, ptr noundef nonnull %32, i64 noundef %47) #7
  %49 = call i32 @test_int_eq(ptr noundef nonnull @.str.28, i32 noundef 493, ptr noundef nonnull @.str.61, ptr noundef nonnull @.str.57, i32 noundef %48, i32 noundef 1) #7
  %.not40 = icmp eq i32 %49, 0
  br i1 %.not40, label %56, label %50

50:                                               ; preds = %46
  %51 = load i64, ptr %2, align 8, !tbaa !19
  %52 = load i64, ptr %3, align 8, !tbaa !19
  %53 = call i32 @test_mem_eq(ptr noundef nonnull @.str.28, i32 noundef 494, ptr noundef nonnull @.str.62, ptr noundef nonnull @.str.63, ptr noundef nonnull %34, i64 noundef %51, ptr noundef nonnull %36, i64 noundef %52) #7
  %.not41 = icmp eq i32 %53, 0
  br i1 %.not41, label %56, label %54

54:                                               ; preds = %50
  %55 = call i32 @OSSL_PROVIDER_unload(ptr noundef %15) #7
  br label %56

56:                                               ; preds = %30, %40, %43, %46, %50, %21, %24, %27, %17, %7, %13, %0, %54
  %.028 = phi i32 [ 0, %0 ], [ 0, %30 ], [ %55, %54 ], [ 0, %50 ], [ 0, %46 ], [ 0, %43 ], [ 0, %40 ], [ 0, %27 ], [ 0, %24 ], [ 0, %21 ], [ 0, %17 ], [ 0, %13 ], [ 0, %7 ]
  %.027 = phi ptr [ %5, %0 ], [ %19, %30 ], [ %19, %54 ], [ %19, %50 ], [ %19, %46 ], [ %19, %43 ], [ %19, %40 ], [ %19, %27 ], [ %19, %24 ], [ %19, %21 ], [ %19, %17 ], [ %5, %13 ], [ %5, %7 ]
  %.026 = phi ptr [ null, %0 ], [ %22, %30 ], [ %22, %54 ], [ %22, %50 ], [ %22, %46 ], [ %22, %43 ], [ %22, %40 ], [ %22, %27 ], [ %22, %24 ], [ %22, %21 ], [ null, %17 ], [ null, %13 ], [ null, %7 ]
  %.025 = phi ptr [ null, %0 ], [ %32, %30 ], [ %32, %54 ], [ %32, %50 ], [ %32, %46 ], [ %32, %43 ], [ %32, %40 ], [ null, %27 ], [ null, %24 ], [ null, %21 ], [ null, %17 ], [ null, %13 ], [ null, %7 ]
  %.024 = phi ptr [ null, %0 ], [ %34, %30 ], [ %34, %54 ], [ %34, %50 ], [ %34, %46 ], [ %34, %43 ], [ %34, %40 ], [ null, %27 ], [ null, %24 ], [ null, %21 ], [ null, %17 ], [ null, %13 ], [ null, %7 ]
  %.0 = phi ptr [ null, %0 ], [ %36, %30 ], [ %36, %54 ], [ %36, %50 ], [ %36, %46 ], [ %36, %43 ], [ %36, %40 ], [ null, %27 ], [ null, %24 ], [ null, %21 ], [ null, %17 ], [ null, %13 ], [ null, %7 ]
  call void @CRYPTO_free(ptr noundef %.025, ptr noundef nonnull @.str.28, i32 noundef 499) #7
  call void @CRYPTO_free(ptr noundef %.024, ptr noundef nonnull @.str.28, i32 noundef 500) #7
  call void @CRYPTO_free(ptr noundef %.0, ptr noundef nonnull @.str.28, i32 noundef 501) #7
  call void @EVP_PKEY_CTX_free(ptr noundef %.026) #7
  call void @EVP_PKEY_free(ptr noundef %.027) #7
  call void @llvm.lifetime.end.p0(i64 8, ptr nonnull %3) #7
  call void @llvm.lifetime.end.p0(i64 8, ptr nonnull %2) #7
  call void @llvm.lifetime.end.p0(i64 8, ptr nonnull %1) #7
  ret i32 %.028
}